target datalayout = "e-m:e-p270:32:32-p271:32:32-p272:64:64-i64:64-i128:128-f80:128-n8:16:32:64-S128"
target triple = "x86_64-pc-linux-gnu"

%struct.strbuf = type { i64, i64, ptr }

@.str = private unnamed_addr constant [36 x i8] c"you want to use way too much memory\00", align 1
@.str.27 = private unnamed_addr constant [27 x i8] c"size_t overflow: %lu * %lu\00", align 1

; Function Attrs: inlinehint nounwind uwtable
define internal i64 @st_mult(i64 noundef %0, i64 noundef %1) #1 {
  %3 = alloca i64, align 8
  %4 = alloca i64, align 8
  store i64 %0, ptr %3, align 8, !tbaa !12
  store i64 %1, ptr %4, align 8, !tbaa !12
  %5 = load i64, ptr %3, align 8, !tbaa !12
  %6 = icmp ne i64 %5, 0
  br i1 %6, label %7, label %15

7:                                                ; preds = %2
  %8 = load i64, ptr %4, align 8, !tbaa !12
  %9 = load i64, ptr %3, align 8, !tbaa !12
  %10 = udiv i64 -1, %9
  %11 = icmp ugt i64 %8, %10
  br i1 %11, label %12, label %15

12:                                               ; preds = %7
  %13 = load i64, ptr %3, align 8, !tbaa !12
  %14 = load i64, ptr %4, align 8, !tbaa !12
  call void (ptr, ...) @die(ptr noundef @.str.27, i64 noundef %13, i64 noundef %14) #12
  unreachable

15:                                               ; preds = %7, %2
  %16 = load i64, ptr %3, align 8, !tbaa !12
  %17 = load i64, ptr %4, align 8, !tbaa !12
  %18 = mul i64 %16, %17
  ret i64 %18
}

; Function Attrs: inlinehint nounwind uwtable
define internal void @strbuf_complete(ptr noundef %0, i8 noundef signext %1) #1 {
  %3 = alloca ptr, align 8
  %4 = alloca i8, align 1
  store ptr %0, ptr %3, align 8, !tbaa !18
  store i8 %1, ptr %4, align 1, !tbaa !9
  %5 = load ptr, ptr %3, align 8, !tbaa !18
  %6 = getelementptr inbounds nuw %struct.strbuf, ptr %5, i32 0, i32 1
  %7 = load i64, ptr %6, align 8, !tbaa !22
  %8 = icmp ne i64 %7, 0
  br i1 %8, label %9, label %27

9:                                                ; preds = %2
  %10 = load ptr, ptr %3, align 8, !tbaa !18
  %11 = getelementptr inbounds nuw %struct.strbuf, ptr %10, i32 0, i32 2
  %12 = load ptr, ptr %11, align 8, !tbaa !23
  %13 = load ptr, ptr %3, align 8, !tbaa !18
  %14 = getelementptr inbounds nuw %struct.strbuf, ptr %13, i32 0, i32 1
  %15 = load i64, ptr %14, align 8, !tbaa !22
  %16 = sub i64 %15, 1
  %17 = getelementptr inbounds nuw i8, ptr %12, i64 %16
  %18 = load i8, ptr %17, align 1, !tbaa !9
  %19 = sext i8 %18 to i32
  %20 = load i8, ptr %4, align 1, !tbaa !9
  %21 = sext i8 %20 to i32
  %22 = icmp ne i32 %19, %21
  br i1 %22, label %23, label %27

23:                                               ; preds = %9
  %24 = load ptr, ptr %3, align 8, !tbaa !18
  %25 = load i8, ptr %4, align 1, !tbaa !9
  %26 = sext i8 %25 to i32
  call void @strbuf_addch(ptr noundef %24, i32 noundef %26)
  br label %27

27:                                               ; preds = %23, %9, %2
  ret void
}

; Function Attrs: nounwind uwtable
define dso_local void @strbuf_grow(ptr noundef %0, i64 noundef %1) #0 {
  %3 = alloca ptr, align 8
  %4 = alloca i64, align 8
  %5 = alloca i32, align 4
  store ptr %0, ptr %3, align 8, !tbaa !18
  store i64 %1, ptr %4, align 8, !tbaa !12
  call void @llvm.lifetime.start.p0(i64 4, ptr %5) #11
  %6 = load ptr, ptr %3, align 8, !tbaa !18
  %7 = getelementptr inbounds nuw %struct.strbuf, ptr %6, i32 0, i32 0
  %8 = load i64, ptr %7, align 8, !tbaa !20
  %9 = icmp ne i64 %8, 0
  %10 = xor i1 %9, true
  %11 = zext i1 %10 to i32
  store i32 %11, ptr %5, align 4, !tbaa !10
  %12 = load i64, ptr %4, align 8, !tbaa !12
  %13 = sub i64 -1, %12
  %14 = icmp ugt i64 1, %13
  br i1 %14, label %23, label %15

15:                                               ; preds = %2
  %16 = load i64, ptr %4, align 8, !tbaa !12
  %17 = add i64 %16, 1
  %18 = load ptr, ptr %3, align 8, !tbaa !18
  %19 = getelementptr inbounds nuw %struct.strbuf, ptr %18, i32 0, i32 1
  %20 = load i64, ptr %19, align 8, !tbaa !22
  %21 = sub i64 -1, %20
  %22 = icmp ugt i64 %17, %21
  br i1 %22, label %23, label %24

23:                                               ; preds = %15, %2
  call void (ptr, ...) @die(ptr noundef @.str) #12
  unreachable

24:                                               ; preds = %15
  %25 = load i32, ptr %5, align 4, !tbaa !10
  %26 = icmp ne i32 %25, 0
  br i1 %26, label %27, label %30

27:                                               ; preds = %24
  %28 = load ptr, ptr %3, align 8, !tbaa !18
  %29 = getelementptr inbounds nuw %struct.strbuf, ptr %28, i32 0, i32 2
  store ptr null, ptr %29, align 8, !tbaa !23
  br label %30

30:                                               ; preds = %27, %24
  br label %31

31:                                               ; preds = %30
  %32 = load ptr, ptr %3, align 8, !tbaa !18
  %33 = getelementptr inbounds nuw %struct.strbuf, ptr %32, i32 0, i32 1
  %34 = load i64, ptr %33, align 8, !tbaa !22
  %35 = load i64, ptr %4, align 8, !tbaa !12
  %36 = add i64 %34, %35
  %37 = add i64 %36, 1
  %38 = load ptr, ptr %3, align 8, !tbaa !18
  %39 = getelementptr inbounds nuw %struct.strbuf, ptr %38, i32 0, i32 0
  %40 = load i64, ptr %39, align 8, !tbaa !20
  %41 = icmp ugt i64 %37, %40
  br i1 %41, label %42, label %85

42:                                               ; preds = %31
  %43 = load ptr, ptr %3, align 8, !tbaa !18
  %44 = getelementptr inbounds nuw %struct.strbuf, ptr %43, i32 0, i32 0
  %45 = load i64, ptr %44, align 8, !tbaa !20
  %46 = add i64 %45, 16
  %47 = mul i64 %46, 3
  %48 = udiv i64 %47, 2
  %49 = load ptr, ptr %3, align 8, !tbaa !18
  %50 = getelementptr inbounds nuw %struct.strbuf, ptr %49, i32 0, i32 1
  %51 = load i64, ptr %50, align 8, !tbaa !22
  %52 = load i64, ptr %4, align 8, !tbaa !12
  %53 = add i64 %51, %52
  %54 = add i64 %53, 1
  %55 = icmp ult i64 %48, %54
  br i1 %55, label %56, label %65

56:                                               ; preds = %42
  %57 = load ptr, ptr %3, align 8, !tbaa !18
  %58 = getelementptr inbounds nuw %struct.strbuf, ptr %57, i32 0, i32 1
  %59 = load i64, ptr %58, align 8, !tbaa !22
  %60 = load i64, ptr %4, align 8, !tbaa !12
  %61 = add i64 %59, %60
  %62 = add i64 %61, 1
  %63 = load ptr, ptr %3, align 8, !tbaa !18
  %64 = getelementptr inbounds nuw %struct.strbuf, ptr %63, i32 0, i32 0
  store i64 %62, ptr %64, align 8, !tbaa !20
  br label %74

65:                                               ; preds = %42
  %66 = load ptr, ptr %3, align 8, !tbaa !18
  %67 = getelementptr inbounds nuw %struct.strbuf, ptr %66, i32 0, i32 0
  %68 = load i64, ptr %67, align 8, !tbaa !20
  %69 = add i64 %68, 16
  %70 = mul i64 %69, 3
  %71 = udiv i64 %70, 2
  %72 = load ptr, ptr %3, align 8, !tbaa !18
  %73 = getelementptr inbounds nuw %struct.strbuf, ptr %72, i32 0, i32 0
  store i64 %71, ptr %73, align 8, !tbaa !20
  br label %74

74:                                               ; preds = %65, %56
  %75 = load ptr, ptr %3, align 8, !tbaa !18
  %76 = getelementptr inbounds nuw %struct.strbuf, ptr %75, i32 0, i32 2
  %77 = load ptr, ptr %76, align 8, !tbaa !23
  %78 = load ptr, ptr %3, align 8, !tbaa !18
  %79 = getelementptr inbounds nuw %struct.strbuf, ptr %78, i32 0, i32 0
  %80 = load i64, ptr %79, align 8, !tbaa !20
  %81 = call i64 @st_mult(i64 noundef 1, i64 noundef %80)
  %82 = call ptr @xrealloc(ptr noundef %77, i64 noundef %81)
  %83 = load ptr, ptr %3, align 8, !tbaa !18
  %84 = getelementptr inbounds nuw %struct.strbuf, ptr %83, i32 0, i32 2
  store ptr %82, ptr %84, align 8, !tbaa !23
  br label %85

85:                                               ; preds = %74, %31
  br label %86

86:                                               ; preds = %85
  br label %87

87:                                               ; preds = %86
  %88 = load i32, ptr %5, align 4, !tbaa !10
  %89 = icmp ne i32 %88, 0
  br i1 %89, label %90, label %95

90:                                               ; preds = %87
  %91 = load ptr, ptr %3, align 8, !tbaa !18
  %92 = getelementptr inbounds nuw %struct.strbuf, ptr %91, i32 0, i32 2
  %93 = load ptr, ptr %92, align 8, !tbaa !23
  %94 = getelementptr inbounds i8, ptr %93, i64 0
  store i8 0, ptr %94, align 1, !tbaa !9
  br label %95

95:                                               ; preds = %90, %87
  call void @llvm.lifetime.end.p0(i64 4, ptr %5) #11
  ret void
}

; Function Attrs: inlinehint nounwind uwtable
define internal i64 @strbuf_avail(ptr noundef %0) #1 {
  %2 = alloca ptr, align 8
  store ptr %0, ptr %2, align 8, !tbaa !18
  %3 = load ptr, ptr %2, align 8, !tbaa !18
  %4 = getelementptr inbounds nuw %struct.strbuf, ptr %3, i32 0, i32 0
  %5 = load i64, ptr %4, align 8, !tbaa !20
  %6 = icmp ne i64 %5, 0
  br i1 %6, label %7, label %16

7:                                                ; preds = %1
  %8 = load ptr, ptr %2, align 8, !tbaa !18
  %9 = getelementptr inbounds nuw %struct.strbuf, ptr %8, i32 0, i32 0
  %10 = load i64, ptr %9, align 8, !tbaa !20
  %11 = load ptr, ptr %2, align 8, !tbaa !18
  %12 = getelementptr inbounds nuw %struct.strbuf, ptr %11, i32 0, i32 1
  %13 = load i64, ptr %12, align 8, !tbaa !22
  %14 = sub i64 %10, %13
  %15 = sub i64 %14, 1
  br label %17

16:                                               ; preds = %1
  br label %17

17:                                               ; preds = %16, %7
  %18 = phi i64 [ %15, %7 ], [ 0, %16 ]
  ret i64 %18
}

; Function Attrs: inlinehint nounwind uwtable
define internal void @strbuf_complete_line(ptr noundef %0) #1 {
  %2 = alloca ptr, align 8
  store ptr %0, ptr %2, align 8, !tbaa !18
  %3 = load ptr, ptr %2, align 8, !tbaa !18
  call void @strbuf_complete(ptr noundef %3, i8 noundef signext 10)
  ret void
}

; Function Attrs: inlinehint nounwind uwtable
define internal void @strbuf_addch(ptr noundef %0, i32 noundef %1) #1 {
  %3 = alloca ptr, align 8
  %4 = alloca i32, align 4
  store ptr %0, ptr %3, align 8, !tbaa !18
  store i32 %1, ptr %4, align 4, !tbaa !10
  %5 = load ptr, ptr %3, align 8, !tbaa !18
  %6 = call i64 @strbuf_avail(ptr noundef %5)
  %7 = icmp ne i64 %6, 0
  br i1 %7, label %10, label %8

8:                                                ; preds = %2
  %9 = load ptr, ptr %3, align 8, !tbaa !18
  call void @strbuf_grow(ptr noundef %9, i64 noundef 1)
  br label %10

10:                                               ; preds = %8, %2
  %11 = load i32, ptr %4, align 4, !tbaa !10
  %12 = trunc i32 %11 to i8
  %13 = load ptr, ptr %3, align 8, !tbaa !18
  %14 = getelementptr inbounds nuw %struct.strbuf, ptr %13, i32 0, i32 2
  %15 = load ptr, ptr %14, align 8, !tbaa !23
  %16 = load ptr, ptr %3, align 8, !tbaa !18
  %17 = getelementptr inbounds nuw %struct.strbuf, ptr %16, i32 0, i32 1
  %18 = load i64, ptr %17, align 8, !tbaa !22
  %19 = add i64 %18, 1
  store i64 %19, ptr %17, align 8, !tbaa !22
  %20 = getelementptr inbounds nuw i8, ptr %15, i64 %18
  store i8 %12, ptr %20, align 1, !tbaa !9
  %21 = load ptr, ptr %3, align 8, !tbaa !18
  %22 = getelementptr inbounds nuw %struct.strbuf, ptr %21, i32 0, i32 2
  %23 = load ptr, ptr %22, align 8, !tbaa !23
  %24 = load ptr, ptr %3, align 8, !tbaa !18
  %25 = getelementptr inbounds nuw %struct.strbuf, ptr %24, i32 0, i32 1
  %26 = load i64, ptr %25, align 8, !tbaa !22
  %27 = getelementptr inbounds nuw i8, ptr %23, i64 %26
  store i8 0, ptr %27, align 1, !tbaa !9
  ret void
}

; Function Attrs: inlinehint nounwind uwtable
define internal void @strbuf_addstr(ptr noundef %0, ptr noundef %1) #1 {
  %3 = alloca ptr, align 8
  %4 = alloca ptr, align 8
  store ptr %0, ptr %3, align 8, !tbaa !18
  store ptr %1, ptr %4, align 8, !tbaa !4
  %5 = load ptr, ptr %3, align 8, !tbaa !18
  %6 = load ptr, ptr %4, align 8, !tbaa !4
  %7 = load ptr, ptr %4, align 8, !tbaa !4
  %8 = call i64 @strlen(ptr noundef %7) #13
  call void @strbuf_add(ptr noundef %5, ptr noundef %6, i64 noundef %8)
  ret void
}

; Function Attrs: nounwind uwtable
define internal void @add_lines(ptr noundef %0, ptr noundef %1, ptr noundef %2, i64 noundef %3, i32 noundef %4) #0 {
  %6 = alloca ptr, align 8
  %7 = alloca ptr, align 8
  %8 = alloca ptr, align 8
  %9 = alloca i64, align 8
  %10 = alloca i32, align 4
  %11 = alloca ptr, align 8
  store ptr %0, ptr %6, align 8, !tbaa !18
  store ptr %1, ptr %7, align 8, !tbaa !4
  store ptr %2, ptr %8, align 8, !tbaa !4
  store i64 %3, ptr %9, align 8, !tbaa !12
  store i32 %4, ptr %10, align 4, !tbaa !10
  br label %12

12:                                               ; preds = %48, %5
  %13 = load i64, ptr %9, align 8, !tbaa !12
  %14 = icmp ne i64 %13, 0
  br i1 %14, label %15, label %64

15:                                               ; preds = %12
  call void @llvm.lifetime.start.p0(i64 8, ptr %11) #11
  %16 = load ptr, ptr %8, align 8, !tbaa !4
  %17 = load i64, ptr %9, align 8, !tbaa !12
  %18 = call ptr @memchr(ptr noundef %16, i32 noundef 10, i64 noundef %17) #13
  store ptr %18, ptr %11, align 8, !tbaa !4
  %19 = load ptr, ptr %11, align 8, !tbaa !4
  %20 = icmp ne ptr %19, null
  br i1 %20, label %21, label %24

21:                                               ; preds = %15
  %22 = load ptr, ptr %11, align 8, !tbaa !4
  %23 = getelementptr inbounds i8, ptr %22, i64 1
  br label %28

24:                                               ; preds = %15
  %25 = load ptr, ptr %8, align 8, !tbaa !4
  %26 = load i64, ptr %9, align 8, !tbaa !12
  %27 = getelementptr inbounds nuw i8, ptr %25, i64 %26
  br label %28

28:                                               ; preds = %24, %21
  %29 = phi ptr [ %23, %21 ], [ %27, %24 ]
  store ptr %29, ptr %11, align 8, !tbaa !4
  %30 = load ptr, ptr %6, align 8, !tbaa !18
  %31 = load ptr, ptr %7, align 8, !tbaa !4
  call void @strbuf_addstr(ptr noundef %30, ptr noundef %31)
  %32 = load i32, ptr %10, align 4, !tbaa !10
  %33 = icmp ne i32 %32, 0
  br i1 %33, label %34, label %48

34:                                               ; preds = %28
  %35 = load ptr, ptr %8, align 8, !tbaa !4
  %36 = getelementptr inbounds i8, ptr %35, i64 0
  %37 = load i8, ptr %36, align 1, !tbaa !9
  %38 = sext i8 %37 to i32
  %39 = icmp ne i32 %38, 10
  br i1 %39, label %40, label %48

40:                                               ; preds = %34
  %41 = load ptr, ptr %8, align 8, !tbaa !4
  %42 = getelementptr inbounds i8, ptr %41, i64 0
  %43 = load i8, ptr %42, align 1, !tbaa !9
  %44 = sext i8 %43 to i32
  %45 = icmp ne i32 %44, 9
  br i1 %45, label %46, label %48

46:                                               ; preds = %40
  %47 = load ptr, ptr %6, align 8, !tbaa !18
  call void @strbuf_addch(ptr noundef %47, i32 noundef 32)
  br label %48

48:                                               ; preds = %46, %40, %34, %28
  %49 = load ptr, ptr %6, align 8, !tbaa !18
  %50 = load ptr, ptr %8, align 8, !tbaa !4
  %51 = load ptr, ptr %11, align 8, !tbaa !4
  %52 = load ptr, ptr %8, align 8, !tbaa !4
  %53 = ptrtoint ptr %51 to i64
  %54 = ptrtoint ptr %52 to i64
  %55 = sub i64 %53, %54
  call void @strbuf_add(ptr noundef %49, ptr noundef %50, i64 noundef %55)
  %56 = load ptr, ptr %11, align 8, !tbaa !4
  %57 = load ptr, ptr %8, align 8, !tbaa !4
  %58 = ptrtoint ptr %56 to i64
  %59 = ptrtoint ptr %57 to i64
  %60 = sub i64 %58, %59
  %61 = load i64, ptr %9, align 8, !tbaa !12
  %62 = sub i64 %61, %60
  store i64 %62, ptr %9, align 8, !tbaa !12
  %63 = load ptr, ptr %11, align 8, !tbaa !4
  store ptr %63, ptr %8, align 8, !tbaa !4
  call void @llvm.lifetime.end.p0(i64 8, ptr %11) #11
  br label %12, !llvm.loop !49

64:                                               ; preds = %12
  %65 = load ptr, ptr %6, align 8, !tbaa !18
  call void @strbuf_complete_line(ptr noundef %65)
  ret void
}