; Function Attrs: nounwind uwtable
define internal fastcc void @add_lines(ptr noundef captures(none) %0, ptr noundef readonly captures(none) %1, ptr noundef %2, i64 noundef %3, i32 noundef range(i32 0, 2) %4) unnamed_addr #3 {
  %.not28 = icmp eq i64 %3, 0
  br i1 %.not28, label %._crit_edge, label %.lr.ph

.lr.ph:                                           ; preds = %5
  %.not24 = icmp eq i32 %4, 0
  %6 = getelementptr inbounds nuw i8, ptr %0, i64 8
  %7 = getelementptr inbounds nuw i8, ptr %0, i64 16
  br i1 %.not24, label %.lr.ph.split.us, label %.lr.ph.split

.lr.ph.split.us:                                  ; preds = %.lr.ph, %.lr.ph.split.us
  %.030.us = phi ptr [ %11, %.lr.ph.split.us ], [ %2, %.lr.ph ]
  %.02129.us = phi i64 [ %16, %.lr.ph.split.us ], [ %3, %.lr.ph ]
  %8 = tail call ptr @memchr(ptr noundef %.030.us, i32 noundef 10, i64 noundef %.02129.us) #26
  %.not23.us = icmp eq ptr %8, null
  %9 = getelementptr inbounds nuw i8, ptr %8, i64 1
  %10 = getelementptr inbounds nuw i8, ptr %.030.us, i64 %.02129.us
  %11 = select i1 %.not23.us, ptr %10, ptr %9
  %12 = tail call i64 @strlen(ptr noundef nonnull readonly dereferenceable(1) %1) #26
  tail call void @strbuf_add(ptr noundef %0, ptr noundef nonnull readonly %1, i64 noundef %12)
  %13 = ptrtoint ptr %11 to i64
  %14 = ptrtoint ptr %.030.us to i64
  %15 = sub i64 %13, %14
  tail call void @strbuf_add(ptr noundef %0, ptr noundef %.030.us, i64 noundef %15)
  %16 = sub i64 %.02129.us, %15
  %.not.us = icmp eq i64 %16, 0
  br i1 %.not.us, label %._crit_edge, label %.lr.ph.split.us, !llvm.loop !36

.lr.ph.split:                                     ; preds = %.lr.ph, %46
  %.030 = phi ptr [ %20, %46 ], [ %2, %.lr.ph ]
  %.02129 = phi i64 [ %50, %46 ], [ %3, %.lr.ph ]
  %17 = tail call ptr @memchr(ptr noundef %.030, i32 noundef 10, i64 noundef %.02129) #26
  %.not23 = icmp eq ptr %17, null
  %18 = getelementptr inbounds nuw i8, ptr %17, i64 1
  %19 = getelementptr inbounds nuw i8, ptr %.030, i64 %.02129
  %20 = select i1 %.not23, ptr %19, ptr %18
  %21 = tail call i64 @strlen(ptr noundef nonnull readonly dereferenceable(1) %1) #26
  tail call void @strbuf_add(ptr noundef %0, ptr noundef nonnull readonly %1, i64 noundef %21)
  %22 = load i8, ptr %.030, align 1, !tbaa !4
  %.off = add i8 %22, -9
  %switch = icmp ult i8 %.off, 2
  br i1 %switch, label %46, label %23

23:                                               ; preds = %.lr.ph.split
  %24 = load i64, ptr %0, align 8, !tbaa !15
  %.not.i.i = icmp eq i64 %24, 0
  %25 = load i64, ptr %6, align 8, !tbaa !16
  br i1 %.not.i.i, label %strbuf_avail.exit.thread.i, label %strbuf_avail.exit.i

strbuf_avail.exit.i:                              ; preds = %23
  %.neg.i = add i64 %25, 1
  %.not.i = icmp eq i64 %24, %.neg.i
  br i1 %.not.i, label %.thread.i, label %strbuf_addch.exit

strbuf_avail.exit.thread.i:                       ; preds = %23
  %26 = icmp ugt i64 %25, -3
  br i1 %26, label %28, label %29

.thread.i:                                        ; preds = %strbuf_avail.exit.i
  %27 = icmp ugt i64 %25, -3
  br i1 %27, label %28, label %.thread8.i

28:                                               ; preds = %.thread.i, %strbuf_avail.exit.thread.i
  tail call void (ptr, ...) @die(ptr noundef nonnull @.str) #24
  unreachable

29:                                               ; preds = %strbuf_avail.exit.thread.i
  store ptr null, ptr %7, align 8, !tbaa !12
  br label %.thread8.i

.thread8.i:                                       ; preds = %29, %.thread.i
  %30 = add nuw i64 %25, 2
  %31 = icmp ugt i64 %30, %24
  br i1 %31, label %32, label %strbuf_addch.exit

32:                                               ; preds = %.thread8.i
  %33 = mul i64 %24, 3
  %34 = add i64 %33, 48
  %35 = lshr i64 %34, 1
  %..i.i = tail call i64 @llvm.umax.i64(i64 %35, i64 %30)
  store i64 %..i.i, ptr %0, align 8, !tbaa !15
  %36 = load ptr, ptr %7, align 8, !tbaa !12
  %37 = tail call ptr @xrealloc(ptr noundef %36, i64 noundef %..i.i) #25
  store ptr %37, ptr %7, align 8, !tbaa !12
  br i1 %.not.i.i, label %38, label %strbuf_addch.exit

38:                                               ; preds = %32
  store i8 0, ptr %37, align 1, !tbaa !4
  br label %strbuf_addch.exit

strbuf_addch.exit:                                ; preds = %strbuf_avail.exit.i, %.thread8.i, %32, %38
  %39 = load ptr, ptr %7, align 8, !tbaa !12
  %40 = load i64, ptr %6, align 8, !tbaa !16
  %41 = add i64 %40, 1
  store i64 %41, ptr %6, align 8, !tbaa !16
  %42 = getelementptr inbounds nuw i8, ptr %39, i64 %40
  store i8 32, ptr %42, align 1, !tbaa !4
  %43 = load ptr, ptr %7, align 8, !tbaa !12
  %44 = load i64, ptr %6, align 8, !tbaa !16
  %45 = getelementptr inbounds nuw i8, ptr %43, i64 %44
  store i8 0, ptr %45, align 1, !tbaa !4
  br label %46

46:                                               ; preds = %.lr.ph.split, %strbuf_addch.exit
  %47 = ptrtoint ptr %20 to i64
  %48 = ptrtoint ptr %.030 to i64
  %49 = sub i64 %47, %48
  tail call void @strbuf_add(ptr noundef %0, ptr noundef nonnull %.030, i64 noundef %49)
  %50 = sub i64 %.02129, %49
  %.not = icmp eq i64 %50, 0
  br i1 %.not, label %._crit_edge, label %.lr.ph.split, !llvm.loop !36

._crit_edge:                                      ; preds = %46, %.lr.ph.split.us, %5
  %51 = getelementptr inbounds nuw i8, ptr %0, i64 8
  %52 = load i64, ptr %51, align 8, !tbaa !16
  %.not.i.i27 = icmp eq i64 %52, 0
  br i1 %.not.i.i27, label %strbuf_complete_line.exit, label %53

53:                                               ; preds = %._crit_edge
  %54 = getelementptr inbounds nuw i8, ptr %0, i64 16
  %55 = load ptr, ptr %54, align 8, !tbaa !12
  %56 = getelementptr i8, ptr %55, i64 %52
  %57 = getelementptr i8, ptr %56, i64 -1
  %58 = load i8, ptr %57, align 1, !tbaa !4
  %.not6.i.i = icmp eq i8 %58, 10
  br i1 %.not6.i.i, label %strbuf_complete_line.exit, label %59

59:                                               ; preds = %53
  %60 = load i64, ptr %0, align 8, !tbaa !15
  %.not.i.i.i.i = icmp eq i64 %60, 0
  br i1 %.not.i.i.i.i, label %strbuf_avail.exit.thread.i.i.i, label %strbuf_avail.exit.i.i.i

strbuf_avail.exit.i.i.i:                          ; preds = %59
  %.neg.i.i.i = add i64 %52, 1
  %.not.i.i.i = icmp eq i64 %60, %.neg.i.i.i
  br i1 %.not.i.i.i, label %.thread.i.i.i, label %strbuf_addch.exit.i.i

strbuf_avail.exit.thread.i.i.i:                   ; preds = %59
  %61 = icmp ugt i64 %52, -3
  br i1 %61, label %63, label %64

.thread.i.i.i:                                    ; preds = %strbuf_avail.exit.i.i.i
  %62 = icmp ugt i64 %52, -3
  br i1 %62, label %63, label %.thread8.i.i.i

63:                                               ; preds = %.thread.i.i.i, %strbuf_avail.exit.thread.i.i.i
  tail call void (ptr, ...) @die(ptr noundef nonnull @.str) #24
  unreachable

64:                                               ; preds = %strbuf_avail.exit.thread.i.i.i
  store ptr null, ptr %54, align 8, !tbaa !12
  br label %.thread8.i.i.i

.thread8.i.i.i:                                   ; preds = %64, %.thread.i.i.i
  %65 = phi ptr [ null, %64 ], [ %55, %.thread.i.i.i ]
  %66 = add nuw i64 %52, 2
  %67 = icmp ugt i64 %66, %60
  br i1 %67, label %68, label %strbuf_addch.exit.i.i

68:                                               ; preds = %.thread8.i.i.i
  %69 = mul i64 %60, 3
  %70 = add i64 %69, 48
  %71 = lshr i64 %70, 1
  %..i.i.i.i = tail call i64 @llvm.umax.i64(i64 %71, i64 %66)
  store i64 %..i.i.i.i, ptr %0, align 8, !tbaa !15
  %72 = tail call ptr @xrealloc(ptr noundef %65, i64 noundef %..i.i.i.i) #25
  store ptr %72, ptr %54, align 8, !tbaa !12
  br i1 %.not.i.i.i.i, label %73, label %strbuf_addch.exit.i.i

73:                                               ; preds = %68
  store i8 0, ptr %72, align 1, !tbaa !4
  %.pre.i.i = load ptr, ptr %54, align 8, !tbaa !12
  br label %strbuf_addch.exit.i.i

strbuf_addch.exit.i.i:                            ; preds = %73, %68, %.thread8.i.i.i, %strbuf_avail.exit.i.i.i
  %74 = phi ptr [ %55, %strbuf_avail.exit.i.i.i ], [ %65, %.thread8.i.i.i ], [ %72, %68 ], [ %.pre.i.i, %73 ]
  %75 = load i64, ptr %51, align 8, !tbaa !16
  %76 = add i64 %75, 1
  store i64 %76, ptr %51, align 8, !tbaa !16
  %77 = getelementptr inbounds nuw i8, ptr %74, i64 %75
  store i8 10, ptr %77, align 1, !tbaa !4
  %78 = load ptr, ptr %54, align 8, !tbaa !12
  %79 = load i64, ptr %51, align 8, !tbaa !16
  %80 = getelementptr inbounds nuw i8, ptr %78, i64 %79
  store i8 0, ptr %80, align 1, !tbaa !4
  br label %strbuf_complete_line.exit

strbuf_complete_line.exit:                        ; preds = %._crit_edge, %53, %strbuf_addch.exit.i.i
  ret void
}